; Function Attrs: inlinehint mustprogress nounwind uwtable
define internal fastcc void @_ZSt8_DestroyIPN3ue212_GLOBAL__N_119hopcroft_state_infoEEvT_S4_(ptr noundef readonly %0, ptr noundef readnone %1) unnamed_addr #3 personality ptr @__gxx_personality_v0 {
  %.not4.i = icmp eq ptr %0, %1
  br i1 %.not4.i, label %_ZNSt12_Destroy_auxILb0EE9__destroyIPN3ue212_GLOBAL__N_119hopcroft_state_infoEEEvT_S6_.exit, label %.lr.ph.i

.lr.ph.i:                                         ; preds = %2, %_ZSt8_DestroyIN3ue212_GLOBAL__N_119hopcroft_state_infoEEvPT_.exit.i
  %.05.i = phi ptr [ %11, %_ZSt8_DestroyIN3ue212_GLOBAL__N_119hopcroft_state_infoEEvPT_.exit.i ], [ %0, %2 ]
  %3 = load ptr, ptr %.05.i, align 8
  %4 = getelementptr inbounds nuw i8, ptr %.05.i, i64 8
  %5 = load ptr, ptr %4, align 8
  %.not4.i.i.i.i.i.i.i = icmp eq ptr %3, %5
  br i1 %.not4.i.i.i.i.i.i.i, label %_ZSt8_DestroyIPSt6vectorItSaItEES2_EvT_S4_RSaIT0_E.exit.i.i.i.i, label %.lr.ph.i.i.i.i.i.i.i

.lr.ph.i.i.i.i.i.i.i:                             ; preds = %.lr.ph.i, %_ZSt8_DestroyISt6vectorItSaItEEEvPT_.exit.i.i.i.i.i.i.i
  %.05.i.i.i.i.i.i.i = phi ptr [ %8, %_ZSt8_DestroyISt6vectorItSaItEEEvPT_.exit.i.i.i.i.i.i.i ], [ %3, %.lr.ph.i ]
  %6 = load ptr, ptr %.05.i.i.i.i.i.i.i, align 8
  %.not.i.i.i.i.i.i.i.i.i.i.i = icmp eq ptr %6, null
  br i1 %.not.i.i.i.i.i.i.i.i.i.i.i, label %_ZSt8_DestroyISt6vectorItSaItEEEvPT_.exit.i.i.i.i.i.i.i, label %7

7:                                                ; preds = %.lr.ph.i.i.i.i.i.i.i
  tail call void @_ZdlPv(ptr noundef nonnull %6) #24
  br label %_ZSt8_DestroyISt6vectorItSaItEEEvPT_.exit.i.i.i.i.i.i.i

_ZSt8_DestroyISt6vectorItSaItEEEvPT_.exit.i.i.i.i.i.i.i: ; preds = %7, %.lr.ph.i.i.i.i.i.i.i
  %8 = getelementptr inbounds nuw i8, ptr %.05.i.i.i.i.i.i.i, i64 24
  %.not.i.i.i.i.i.i.i = icmp eq ptr %8, %5
  br i1 %.not.i.i.i.i.i.i.i, label %_ZSt8_DestroyIPSt6vectorItSaItEES2_EvT_S4_RSaIT0_E.exitthread-pre-split.i.i.i.i, label %.lr.ph.i.i.i.i.i.i.i, !llvm.loop !15

_ZSt8_DestroyIPSt6vectorItSaItEES2_EvT_S4_RSaIT0_E.exitthread-pre-split.i.i.i.i: ; preds = %_ZSt8_DestroyISt6vectorItSaItEEEvPT_.exit.i.i.i.i.i.i.i
  %.pr.i.i.i.i = load ptr, ptr %.05.i, align 8
  br label %_ZSt8_DestroyIPSt6vectorItSaItEES2_EvT_S4_RSaIT0_E.exit.i.i.i.i

_ZSt8_DestroyIPSt6vectorItSaItEES2_EvT_S4_RSaIT0_E.exit.i.i.i.i: ; preds = %_ZSt8_DestroyIPSt6vectorItSaItEES2_EvT_S4_RSaIT0_E.exitthread-pre-split.i.i.i.i, %.lr.ph.i
  %9 = phi ptr [ %.pr.i.i.i.i, %_ZSt8_DestroyIPSt6vectorItSaItEES2_EvT_S4_RSaIT0_E.exitthread-pre-split.i.i.i.i ], [ %3, %.lr.ph.i ]
  %.not.i.i.i.i.i.i = icmp eq ptr %9, null
  br i1 %.not.i.i.i.i.i.i, label %_ZSt8_DestroyIN3ue212_GLOBAL__N_119hopcroft_state_infoEEvPT_.exit.i, label %10

10:                                               ; preds = %_ZSt8_DestroyIPSt6vectorItSaItEES2_EvT_S4_RSaIT0_E.exit.i.i.i.i
  tail call void @_ZdlPv(ptr noundef nonnull %9) #24
  br label %_ZSt8_DestroyIN3ue212_GLOBAL__N_119hopcroft_state_infoEEvPT_.exit.i

_ZSt8_DestroyIN3ue212_GLOBAL__N_119hopcroft_state_infoEEvPT_.exit.i: ; preds = %10, %_ZSt8_DestroyIPSt6vectorItSaItEES2_EvT_S4_RSaIT0_E.exit.i.i.i.i
  %11 = getelementptr inbounds nuw i8, ptr %.05.i, i64 24
  %.not.i = icmp eq ptr %11, %1
  br i1 %.not.i, label %_ZNSt12_Destroy_auxILb0EE9__destroyIPN3ue212_GLOBAL__N_119hopcroft_state_infoEEEvT_S6_.exit, label %.lr.ph.i, !llvm.loop !87

_ZNSt12_Destroy_auxILb0EE9__destroyIPN3ue212_GLOBAL__N_119hopcroft_state_infoEEEvT_S6_.exit: ; preds = %_ZSt8_DestroyIN3ue212_GLOBAL__N_119hopcroft_state_infoEEvPT_.exit.i, %2
  ret void
}